target datalayout = "e-m:e-p270:32:32-p271:32:32-p272:64:64-i64:64-i128:128-f80:128-n8:16:32:64-S128"
target triple = "x86_64-pc-linux-gnu"

%struct.yyguts_t = type { i32, ptr, ptr, i64, i64, ptr, i8, i32, i32, ptr, i32, i32, i32, i32, i32, ptr, i32, ptr, i32, i32, ptr, i32, i32, ptr, ptr }

@.str.14 = private unnamed_addr constant [46 x i8] c"out of memory expanding start-condition stack\00", align 1

; Function Attrs: nounwind uwtable
define dso_local ptr @jq_yyrealloc(ptr noundef %0, i64 noundef %1, ptr noundef %2) #0 {
  %4 = alloca ptr, align 8
  %5 = alloca i64, align 8
  %6 = alloca ptr, align 8
  store ptr %0, ptr %4, align 8, !tbaa !9
  store i64 %1, ptr %5, align 8, !tbaa !55
  store ptr %2, ptr %6, align 8, !tbaa !9
  %7 = load ptr, ptr %4, align 8, !tbaa !9
  %8 = load i64, ptr %5, align 8, !tbaa !55
  %9 = call ptr @jv_mem_realloc(ptr noundef %7, i64 noundef %8)
  ret ptr %9
}

; Function Attrs: nounwind uwtable
define dso_local ptr @jq_yyalloc(i64 noundef %0, ptr noundef %1) #0 {
  %3 = alloca i64, align 8
  %4 = alloca ptr, align 8
  store i64 %0, ptr %3, align 8, !tbaa !55
  store ptr %1, ptr %4, align 8, !tbaa !9
  %5 = load i64, ptr %3, align 8, !tbaa !55
  %6 = call ptr @jv_mem_alloc(i64 noundef %5)
  ret ptr %6
}

; Function Attrs: nounwind uwtable
define internal void @yy_push_state(i32 noundef %0, ptr noundef %1) #0 {
  %3 = alloca i32, align 4
  %4 = alloca ptr, align 8
  %5 = alloca ptr, align 8
  %6 = alloca i64, align 8
  store i32 %0, ptr %3, align 4, !tbaa !34
  store ptr %1, ptr %4, align 8, !tbaa !9
  call void @llvm.lifetime.start.p0(i64 8, ptr %5) #10
  %7 = load ptr, ptr %4, align 8, !tbaa !9
  store ptr %7, ptr %5, align 8, !tbaa !10
  %8 = load ptr, ptr %5, align 8, !tbaa !10
  %9 = getelementptr inbounds nuw %struct.yyguts_t, ptr %8, i32 0, i32 13
  %10 = load i32, ptr %9, align 4, !tbaa !61
  %11 = load ptr, ptr %5, align 8, !tbaa !10
  %12 = getelementptr inbounds nuw %struct.yyguts_t, ptr %11, i32 0, i32 14
  %13 = load i32, ptr %12, align 8, !tbaa !62
  %14 = icmp sge i32 %10, %13
  br i1 %14, label %15, label %52

15:                                               ; preds = %2
  call void @llvm.lifetime.start.p0(i64 8, ptr %6) #10
  %16 = load ptr, ptr %5, align 8, !tbaa !10
  %17 = getelementptr inbounds nuw %struct.yyguts_t, ptr %16, i32 0, i32 14
  %18 = load i32, ptr %17, align 8, !tbaa !62
  %19 = add nsw i32 %18, 25
  store i32 %19, ptr %17, align 8, !tbaa !62
  %20 = load ptr, ptr %5, align 8, !tbaa !10
  %21 = getelementptr inbounds nuw %struct.yyguts_t, ptr %20, i32 0, i32 14
  %22 = load i32, ptr %21, align 8, !tbaa !62
  %23 = sext i32 %22 to i64
  %24 = mul i64 %23, 4
  store i64 %24, ptr %6, align 8, !tbaa !55
  %25 = load ptr, ptr %5, align 8, !tbaa !10
  %26 = getelementptr inbounds nuw %struct.yyguts_t, ptr %25, i32 0, i32 15
  %27 = load ptr, ptr %26, align 8, !tbaa !63
  %28 = icmp ne ptr %27, null
  br i1 %28, label %35, label %29

29:                                               ; preds = %15
  %30 = load i64, ptr %6, align 8, !tbaa !55
  %31 = load ptr, ptr %4, align 8, !tbaa !9
  %32 = call ptr @jq_yyalloc(i64 noundef %30, ptr noundef %31)
  %33 = load ptr, ptr %5, align 8, !tbaa !10
  %34 = getelementptr inbounds nuw %struct.yyguts_t, ptr %33, i32 0, i32 15
  store ptr %32, ptr %34, align 8, !tbaa !63
  br label %44

35:                                               ; preds = %15
  %36 = load ptr, ptr %5, align 8, !tbaa !10
  %37 = getelementptr inbounds nuw %struct.yyguts_t, ptr %36, i32 0, i32 15
  %38 = load ptr, ptr %37, align 8, !tbaa !63
  %39 = load i64, ptr %6, align 8, !tbaa !55
  %40 = load ptr, ptr %4, align 8, !tbaa !9
  %41 = call ptr @jq_yyrealloc(ptr noundef %38, i64 noundef %39, ptr noundef %40)
  %42 = load ptr, ptr %5, align 8, !tbaa !10
  %43 = getelementptr inbounds nuw %struct.yyguts_t, ptr %42, i32 0, i32 15
  store ptr %41, ptr %43, align 8, !tbaa !63
  br label %44

44:                                               ; preds = %35, %29
  %45 = load ptr, ptr %5, align 8, !tbaa !10
  %46 = getelementptr inbounds nuw %struct.yyguts_t, ptr %45, i32 0, i32 15
  %47 = load ptr, ptr %46, align 8, !tbaa !63
  %48 = icmp ne ptr %47, null
  br i1 %48, label %51, label %49

49:                                               ; preds = %44
  %50 = load ptr, ptr %4, align 8, !tbaa !9
  call void @yy_fatal_error(ptr noundef @.str.14, ptr noundef %50) #11
  unreachable

51:                                               ; preds = %44
  call void @llvm.lifetime.end.p0(i64 8, ptr %6) #10
  br label %52

52:                                               ; preds = %51, %2
  %53 = load ptr, ptr %5, align 8, !tbaa !10
  %54 = getelementptr inbounds nuw %struct.yyguts_t, ptr %53, i32 0, i32 11
  %55 = load i32, ptr %54, align 4, !tbaa !22
  %56 = sub nsw i32 %55, 1
  %57 = sdiv i32 %56, 2
  %58 = load ptr, ptr %5, align 8, !tbaa !10
  %59 = getelementptr inbounds nuw %struct.yyguts_t, ptr %58, i32 0, i32 15
  %60 = load ptr, ptr %59, align 8, !tbaa !63
  %61 = load ptr, ptr %5, align 8, !tbaa !10
  %62 = getelementptr inbounds nuw %struct.yyguts_t, ptr %61, i32 0, i32 13
  %63 = load i32, ptr %62, align 4, !tbaa !61
  %64 = add nsw i32 %63, 1
  store i32 %64, ptr %62, align 4, !tbaa !61
  %65 = sext i32 %63 to i64
  %66 = getelementptr inbounds i32, ptr %60, i64 %65
  store i32 %57, ptr %66, align 4, !tbaa !34
  %67 = load i32, ptr %3, align 4, !tbaa !34
  %68 = mul nsw i32 2, %67
  %69 = add nsw i32 1, %68
  %70 = load ptr, ptr %5, align 8, !tbaa !10
  %71 = getelementptr inbounds nuw %struct.yyguts_t, ptr %70, i32 0, i32 11
  store i32 %69, ptr %71, align 4, !tbaa !22
  call void @llvm.lifetime.end.p0(i64 8, ptr %5) #10
  ret void
}